; ModuleID = 'source-C-CXX/25/444.c'
source_filename = "source-C-CXX/25/444.c"
target datalayout = "e-m:e-p270:32:32-p271:32:32-p272:64:64-i64:64-f80:128-n8:16:32:64-S128"
target triple = "x86_64-pc-linux-gnu"

%struct._IO_FILE = type { i32, i8*, i8*, i8*, i8*, i8*, i8*, i8*, i8*, i8*, i8*, i8*, %struct._IO_marker*, %struct._IO_FILE*, i32, i32, i64, i16, i8, [1 x i8], i8*, i64, %struct._IO_codecvt*, %struct._IO_wide_data*, %struct._IO_FILE*, i8*, i64, i32, [20 x i8] }
%struct._IO_marker = type opaque
%struct._IO_codecvt = type opaque
%struct._IO_wide_data = type opaque

@stdin = external local_unnamed_addr global %struct._IO_FILE*, align 8
@stdout = external local_unnamed_addr global %struct._IO_FILE*, align 8

; Function Attrs: nofree nounwind sspstrong uwtable
define dso_local i32 @main() local_unnamed_addr #0 {
  br label %1

1:                                                ; preds = %15, %0
  %2 = phi i32 [ 0, %0 ], [ %16, %15 ]
  %3 = load %struct._IO_FILE*, %struct._IO_FILE** @stdin, align 8, !tbaa !5
  %4 = tail call i32 @getc(%struct._IO_FILE* %3) #2
  %5 = shl i32 %4, 24
  switch i32 %5, label %8 [
    i32 167772160, label %17
    i32 536870912, label %6
  ]

6:                                                ; preds = %1
  %7 = icmp eq i32 %2, 0
  br i1 %7, label %10, label %15

8:                                                ; preds = %1
  %9 = ashr exact i32 %5, 24
  br label %10

10:                                               ; preds = %6, %8
  %11 = phi i32 [ %9, %8 ], [ 32, %6 ]
  %12 = phi i32 [ 0, %8 ], [ 1, %6 ]
  %13 = load %struct._IO_FILE*, %struct._IO_FILE** @stdout, align 8, !tbaa !5
  %14 = tail call i32 @putc(i32 %11, %struct._IO_FILE* %13) #2
  br label %15

15:                                               ; preds = %10, %6
  %16 = phi i32 [ 1, %6 ], [ %12, %10 ]
  br label %1, !llvm.loop !9

17:                                               ; preds = %1
  ret i32 0
}

; Function Attrs: nofree nounwind
declare noundef i32 @getc(%struct._IO_FILE* nocapture noundef) local_unnamed_addr #1

; Function Attrs: nofree nounwind
declare noundef i32 @putc(i32 noundef, %struct._IO_FILE* nocapture noundef) local_unnamed_addr #1


!llvm.module.flags = !{!0, !1, !2, !3}
!llvm.ident = !{!4}

!0 = !{i32 1, !"wchar_size", i32 4}
!1 = !{i32 7, !"PIC Level", i32 2}
!2 = !{i32 7, !"PIE Level", i32 2}
!3 = !{i32 7, !"uwtable", i32 1}
!4 = !{!"clang version 13.0.0"}
!5 = !{!6, !6, i64 0}
!6 = !{!"any pointer", !7, i64 0}
!7 = !{!"omnipotent char", !8, i64 0}
!8 = !{!"Simple C/C++ TBAA"}
!9 = distinct !{!9, !10}
!10 = !{!"llvm.loop.mustprogress"}
